target datalayout = "e-m:e-p270:32:32-p271:32:32-p272:64:64-i64:64-i128:128-f80:128-n8:16:32:64-S128"
target triple = "x86_64-unknown-linux-gnu"

%"class.cvc5::internal::prop::CadicalSolver" = type { %"class.cvc5::internal::prop::CDCLTSatSolver", %"class.cvc5::internal::EnvObj", %"class.std::unique_ptr", %"class.std::unique_ptr.2", ptr, ptr, %"class.std::unique_ptr.10", %"class.std::vector", i32, i8, i64, i64, %"struct.cvc5::internal::prop::CadicalSolver::Statistics" }
%"class.cvc5::internal::prop::CDCLTSatSolver" = type { %"class.cvc5::internal::prop::SatSolver" }
%"class.cvc5::internal::prop::SatSolver" = type { ptr }
%"class.cvc5::internal::EnvObj" = type { ptr, ptr }
%"class.std::unique_ptr" = type { %"struct.std::__uniq_ptr_data" }
%"struct.std::__uniq_ptr_data" = type { %"class.std::__uniq_ptr_impl" }
%"class.std::__uniq_ptr_impl" = type { %"class.std::tuple" }
%"class.std::tuple" = type { %"struct.std::_Tuple_impl" }
%"struct.std::_Tuple_impl" = type { %"struct.std::_Head_base.1" }
%"struct.std::_Head_base.1" = type { ptr }
%"class.std::unique_ptr.2" = type { %"struct.std::__uniq_ptr_data.3" }
%"struct.std::__uniq_ptr_data.3" = type { %"class.std::__uniq_ptr_impl.4" }
%"class.std::__uniq_ptr_impl.4" = type { %"class.std::tuple.5" }
%"class.std::tuple.5" = type { %"struct.std::_Tuple_impl.6" }
%"struct.std::_Tuple_impl.6" = type { %"struct.std::_Head_base.9" }
%"struct.std::_Head_base.9" = type { ptr }
%"class.std::unique_ptr.10" = type { %"struct.std::__uniq_ptr_data.11" }
%"struct.std::__uniq_ptr_data.11" = type { %"class.std::__uniq_ptr_impl.12" }
%"class.std::__uniq_ptr_impl.12" = type { %"class.std::tuple.13" }
%"class.std::tuple.13" = type { %"struct.std::_Tuple_impl.14" }
%"struct.std::_Tuple_impl.14" = type { %"struct.std::_Head_base.17" }
%"struct.std::_Head_base.17" = type { ptr }
%"class.std::vector" = type { %"struct.std::_Vector_base" }
%"struct.std::_Vector_base" = type { %"struct.std::_Vector_base<cvc5::internal::prop::SatLiteral, std::allocator<cvc5::internal::prop::SatLiteral>>::_Vector_impl" }
%"struct.std::_Vector_base<cvc5::internal::prop::SatLiteral, std::allocator<cvc5::internal::prop::SatLiteral>>::_Vector_impl" = type { %"struct.std::_Vector_base<cvc5::internal::prop::SatLiteral, std::allocator<cvc5::internal::prop::SatLiteral>>::_Vector_impl_data" }
%"struct.std::_Vector_base<cvc5::internal::prop::SatLiteral, std::allocator<cvc5::internal::prop::SatLiteral>>::_Vector_impl_data" = type { ptr, ptr, ptr }
%"struct.cvc5::internal::prop::CadicalSolver::Statistics" = type { %"class.cvc5::internal::IntStat", %"class.cvc5::internal::IntStat", %"class.cvc5::internal::IntStat", %"class.cvc5::internal::TimerStat" }
%"class.cvc5::internal::IntStat" = type { %"class.cvc5::internal::ValueStat" }
%"class.cvc5::internal::ValueStat" = type { ptr }
%"class.cvc5::internal::TimerStat" = type { ptr }

@.str = private unnamed_addr constant [5 x i8] c"walk\00", align 1
@.str.2 = private unnamed_addr constant [6 x i8] c"lucky\00", align 1
@.str.3 = private unnamed_addr constant [6 x i8] c"quiet\00", align 1

; Function Attrs: mustprogress nounwind uwtable
define linkonce_odr hidden noundef nonnull align 8 dereferenceable(8) ptr @_ZNSt10_Head_baseILm0EPN7CaDiCaL6SolverELb0EE7_M_headERKS3_(ptr noundef nonnull align 8 dereferenceable(8) %__b) #4 comdat align 2 {
entry:
  %__b.addr = alloca ptr, align 8
  store ptr %__b, ptr %__b.addr, align 8
  %0 = load ptr, ptr %__b.addr, align 8
  %_M_head_impl = getelementptr inbounds %"struct.std::_Head_base.1", ptr %0, i32 0, i32 0
  ret ptr %_M_head_impl
}

; Function Attrs: mustprogress nounwind uwtable
define linkonce_odr hidden noundef nonnull align 8 dereferenceable(8) ptr @_ZNSt10_Head_baseILm0EPN4cvc58internal4prop17CadicalPropagatorELb0EE7_M_headERKS5_(ptr noundef nonnull align 8 dereferenceable(8) %__b) #4 comdat align 2 {
entry:
  %__b.addr = alloca ptr, align 8
  store ptr %__b, ptr %__b.addr, align 8
  %0 = load ptr, ptr %__b.addr, align 8
  %_M_head_impl = getelementptr inbounds %"struct.std::_Head_base.17", ptr %0, i32 0, i32 0
  ret ptr %_M_head_impl
}

; Function Attrs: mustprogress nounwind uwtable
define linkonce_odr hidden noundef nonnull align 8 dereferenceable(8) ptr @_ZNSt11_Tuple_implILm0EJPN7CaDiCaL6SolverESt14default_deleteIS1_EEE7_M_headERKS5_(ptr noundef nonnull align 8 dereferenceable(8) %__t) #4 comdat align 2 {
entry:
  %__t.addr = alloca ptr, align 8
  store ptr %__t, ptr %__t.addr, align 8
  %0 = load ptr, ptr %__t.addr, align 8
  %call = call noundef nonnull align 8 dereferenceable(8) ptr @_ZNSt10_Head_baseILm0EPN7CaDiCaL6SolverELb0EE7_M_headERKS3_(ptr noundef nonnull align 8 dereferenceable(8) %0) #3
  ret ptr %call
}

; Function Attrs: mustprogress nounwind uwtable
define linkonce_odr hidden noundef nonnull align 8 dereferenceable(8) ptr @_ZNSt11_Tuple_implILm0EJPN4cvc58internal4prop17CadicalPropagatorESt14default_deleteIS3_EEE7_M_headERKS7_(ptr noundef nonnull align 8 dereferenceable(8) %__t) #4 comdat align 2 {
entry:
  %__t.addr = alloca ptr, align 8
  store ptr %__t, ptr %__t.addr, align 8
  %0 = load ptr, ptr %__t.addr, align 8
  %call = call noundef nonnull align 8 dereferenceable(8) ptr @_ZNSt10_Head_baseILm0EPN4cvc58internal4prop17CadicalPropagatorELb0EE7_M_headERKS5_(ptr noundef nonnull align 8 dereferenceable(8) %0) #3
  ret ptr %call
}

; Function Attrs: mustprogress nounwind uwtable
define linkonce_odr hidden noundef nonnull align 8 dereferenceable(8) ptr @_ZSt12__get_helperILm0EPN7CaDiCaL6SolverEJSt14default_deleteIS1_EEERKT0_RKSt11_Tuple_implIXT_EJS5_DpT1_EE(ptr noundef nonnull align 8 dereferenceable(8) %__t) #4 comdat {
entry:
  %__t.addr = alloca ptr, align 8
  store ptr %__t, ptr %__t.addr, align 8
  %0 = load ptr, ptr %__t.addr, align 8
  %call = call noundef nonnull align 8 dereferenceable(8) ptr @_ZNSt11_Tuple_implILm0EJPN7CaDiCaL6SolverESt14default_deleteIS1_EEE7_M_headERKS5_(ptr noundef nonnull align 8 dereferenceable(8) %0) #3
  ret ptr %call
}

; Function Attrs: mustprogress nounwind uwtable
define linkonce_odr hidden noundef nonnull align 8 dereferenceable(8) ptr @_ZSt12__get_helperILm0EPN4cvc58internal4prop17CadicalPropagatorEJSt14default_deleteIS3_EEERKT0_RKSt11_Tuple_implIXT_EJS7_DpT1_EE(ptr noundef nonnull align 8 dereferenceable(8) %__t) #4 comdat {
entry:
  %__t.addr = alloca ptr, align 8
  store ptr %__t, ptr %__t.addr, align 8
  %0 = load ptr, ptr %__t.addr, align 8
  %call = call noundef nonnull align 8 dereferenceable(8) ptr @_ZNSt11_Tuple_implILm0EJPN4cvc58internal4prop17CadicalPropagatorESt14default_deleteIS3_EEE7_M_headERKS7_(ptr noundef nonnull align 8 dereferenceable(8) %0) #3
  ret ptr %call
}

; Function Attrs: mustprogress nounwind uwtable
define linkonce_odr hidden noundef nonnull align 8 dereferenceable(8) ptr @_ZSt3getILm0EJPN7CaDiCaL6SolverESt14default_deleteIS1_EEERKNSt13tuple_elementIXT_ESt5tupleIJDpT0_EEE4typeERKS9_(ptr noundef nonnull align 8 dereferenceable(8) %__t) #4 comdat {
entry:
  %__t.addr = alloca ptr, align 8
  store ptr %__t, ptr %__t.addr, align 8
  %0 = load ptr, ptr %__t.addr, align 8
  %call = call noundef nonnull align 8 dereferenceable(8) ptr @_ZSt12__get_helperILm0EPN7CaDiCaL6SolverEJSt14default_deleteIS1_EEERKT0_RKSt11_Tuple_implIXT_EJS5_DpT1_EE(ptr noundef nonnull align 8 dereferenceable(8) %0) #3
  ret ptr %call
}

; Function Attrs: mustprogress nounwind uwtable
define linkonce_odr hidden noundef nonnull align 8 dereferenceable(8) ptr @_ZSt3getILm0EJPN4cvc58internal4prop17CadicalPropagatorESt14default_deleteIS3_EEERKNSt13tuple_elementIXT_ESt5tupleIJDpT0_EEE4typeERKSB_(ptr noundef nonnull align 8 dereferenceable(8) %__t) #4 comdat {
entry:
  %__t.addr = alloca ptr, align 8
  store ptr %__t, ptr %__t.addr, align 8
  %0 = load ptr, ptr %__t.addr, align 8
  %call = call noundef nonnull align 8 dereferenceable(8) ptr @_ZSt12__get_helperILm0EPN4cvc58internal4prop17CadicalPropagatorEJSt14default_deleteIS3_EEERKT0_RKSt11_Tuple_implIXT_EJS7_DpT1_EE(ptr noundef nonnull align 8 dereferenceable(8) %0) #3
  ret ptr %call
}

; Function Attrs: mustprogress nounwind uwtable
define linkonce_odr hidden noundef ptr @_ZNKSt15__uniq_ptr_implIN7CaDiCaL6SolverESt14default_deleteIS1_EE6_M_ptrEv(ptr noundef nonnull align 8 dereferenceable(8) %this) #4 comdat align 2 {
entry:
  %this.addr = alloca ptr, align 8
  store ptr %this, ptr %this.addr, align 8
  %this1 = load ptr, ptr %this.addr, align 8
  %_M_t = getelementptr inbounds %"class.std::__uniq_ptr_impl", ptr %this1, i32 0, i32 0
  %call = call noundef nonnull align 8 dereferenceable(8) ptr @_ZSt3getILm0EJPN7CaDiCaL6SolverESt14default_deleteIS1_EEERKNSt13tuple_elementIXT_ESt5tupleIJDpT0_EEE4typeERKS9_(ptr noundef nonnull align 8 dereferenceable(8) %_M_t) #3
  %0 = load ptr, ptr %call, align 8
  ret ptr %0
}

; Function Attrs: mustprogress nounwind uwtable
define linkonce_odr hidden noundef ptr @_ZNKSt15__uniq_ptr_implIN4cvc58internal4prop17CadicalPropagatorESt14default_deleteIS3_EE6_M_ptrEv(ptr noundef nonnull align 8 dereferenceable(8) %this) #4 comdat align 2 {
entry:
  %this.addr = alloca ptr, align 8
  store ptr %this, ptr %this.addr, align 8
  %this1 = load ptr, ptr %this.addr, align 8
  %_M_t = getelementptr inbounds %"class.std::__uniq_ptr_impl.12", ptr %this1, i32 0, i32 0
  %call = call noundef nonnull align 8 dereferenceable(8) ptr @_ZSt3getILm0EJPN4cvc58internal4prop17CadicalPropagatorESt14default_deleteIS3_EEERKNSt13tuple_elementIXT_ESt5tupleIJDpT0_EEE4typeERKSB_(ptr noundef nonnull align 8 dereferenceable(8) %_M_t) #3
  %0 = load ptr, ptr %call, align 8
  ret ptr %0
}

; Function Attrs: mustprogress nounwind uwtable
define linkonce_odr hidden noundef ptr @_ZNKSt10unique_ptrIN7CaDiCaL6SolverESt14default_deleteIS1_EE3getEv(ptr noundef nonnull align 8 dereferenceable(8) %this) #4 comdat align 2 {
entry:
  %this.addr = alloca ptr, align 8
  store ptr %this, ptr %this.addr, align 8
  %this1 = load ptr, ptr %this.addr, align 8
  %_M_t = getelementptr inbounds %"class.std::unique_ptr", ptr %this1, i32 0, i32 0
  %call = call noundef ptr @_ZNKSt15__uniq_ptr_implIN7CaDiCaL6SolverESt14default_deleteIS1_EE6_M_ptrEv(ptr noundef nonnull align 8 dereferenceable(8) %_M_t) #3
  ret ptr %call
}

; Function Attrs: mustprogress nounwind uwtable
define linkonce_odr hidden noundef ptr @_ZNKSt10unique_ptrIN4cvc58internal4prop17CadicalPropagatorESt14default_deleteIS3_EE3getEv(ptr noundef nonnull align 8 dereferenceable(8) %this) #4 comdat align 2 {
entry:
  %this.addr = alloca ptr, align 8
  store ptr %this, ptr %this.addr, align 8
  %this1 = load ptr, ptr %this.addr, align 8
  %_M_t = getelementptr inbounds %"class.std::unique_ptr.10", ptr %this1, i32 0, i32 0
  %call = call noundef ptr @_ZNKSt15__uniq_ptr_implIN4cvc58internal4prop17CadicalPropagatorESt14default_deleteIS3_EE6_M_ptrEv(ptr noundef nonnull align 8 dereferenceable(8) %_M_t) #3
  ret ptr %call
}

; Function Attrs: mustprogress nounwind uwtable
define internal noundef i32 @_ZN4cvc58internal4prop12_GLOBAL__N_112toCadicalVarEm(i64 noundef %var) #4 {
entry:
  %var.addr = alloca i64, align 8
  store i64 %var, ptr %var.addr, align 8
  %0 = load i64, ptr %var.addr, align 8
  %conv = trunc i64 %0 to i32
  ret i32 %conv
}

; Function Attrs: mustprogress nounwind uwtable
define linkonce_odr hidden noundef ptr @_ZNKSt10unique_ptrIN7CaDiCaL6SolverESt14default_deleteIS1_EEptEv(ptr noundef nonnull align 8 dereferenceable(8) %this) #4 comdat align 2 {
entry:
  %this.addr = alloca ptr, align 8
  store ptr %this, ptr %this.addr, align 8
  %this1 = load ptr, ptr %this.addr, align 8
  %call = call noundef ptr @_ZNKSt10unique_ptrIN7CaDiCaL6SolverESt14default_deleteIS1_EE3getEv(ptr noundef nonnull align 8 dereferenceable(8) %this1) #3
  ret ptr %call
}

; Function Attrs: mustprogress nounwind uwtable
define linkonce_odr hidden noundef zeroext i1 @_ZNKSt10unique_ptrIN4cvc58internal4prop17CadicalPropagatorESt14default_deleteIS3_EEcvbEv(ptr noundef nonnull align 8 dereferenceable(8) %this) #4 comdat align 2 {
entry:
  %this.addr = alloca ptr, align 8
  store ptr %this, ptr %this.addr, align 8
  %this1 = load ptr, ptr %this.addr, align 8
  %call = call noundef ptr @_ZNKSt10unique_ptrIN4cvc58internal4prop17CadicalPropagatorESt14default_deleteIS3_EE3getEv(ptr noundef nonnull align 8 dereferenceable(8) %this1) #3
  %cmp = icmp eq ptr %call, null
  %cond = select i1 %cmp, i1 false, i1 true
  ret i1 %cond
}

; Function Attrs: mustprogress uwtable
define hidden void @_ZN4cvc58internal4prop13CadicalSolver4initEv(ptr noundef nonnull align 8 dereferenceable(144) %this) #5 align 2 {
entry:
  %this.addr = alloca ptr, align 8
  store ptr %this, ptr %this.addr, align 8
  %this1 = load ptr, ptr %this.addr, align 8
  %vtable = load ptr, ptr %this1, align 8
  %vfn = getelementptr inbounds ptr, ptr %vtable, i64 5
  %0 = load ptr, ptr %vfn, align 8
  %call = call noundef i64 %0(ptr noundef nonnull align 8 dereferenceable(144) %this1, i1 noundef zeroext false, i1 noundef zeroext true)
  %d_true = getelementptr inbounds %"class.cvc5::internal::prop::CadicalSolver", ptr %this1, i32 0, i32 10
  store i64 %call, ptr %d_true, align 8
  %vtable2 = load ptr, ptr %this1, align 8
  %vfn3 = getelementptr inbounds ptr, ptr %vtable2, i64 5
  %1 = load ptr, ptr %vfn3, align 8
  %call4 = call noundef i64 %1(ptr noundef nonnull align 8 dereferenceable(144) %this1, i1 noundef zeroext false, i1 noundef zeroext true)
  %d_false = getelementptr inbounds %"class.cvc5::internal::prop::CadicalSolver", ptr %this1, i32 0, i32 11
  store i64 %call4, ptr %d_false, align 8
  %d_propagator = getelementptr inbounds %"class.cvc5::internal::prop::CadicalSolver", ptr %this1, i32 0, i32 6
  %call5 = call noundef zeroext i1 @_ZNKSt10unique_ptrIN4cvc58internal4prop17CadicalPropagatorESt14default_deleteIS3_EEcvbEv(ptr noundef nonnull align 8 dereferenceable(8) %d_propagator) #3
  br i1 %call5, label %if.then, label %if.end

if.then:                                          ; preds = %entry
  %d_solver = getelementptr inbounds %"class.cvc5::internal::prop::CadicalSolver", ptr %this1, i32 0, i32 2
  %call6 = call noundef ptr @_ZNKSt10unique_ptrIN7CaDiCaL6SolverESt14default_deleteIS1_EEptEv(ptr noundef nonnull align 8 dereferenceable(8) %d_solver) #3
  %call7 = call noundef zeroext i1 @_ZN7CaDiCaL6Solver3setEPKci(ptr noundef nonnull align 8 dereferenceable(40) %call6, ptr noundef @.str, i32 noundef 0)
  %d_solver8 = getelementptr inbounds %"class.cvc5::internal::prop::CadicalSolver", ptr %this1, i32 0, i32 2
  %call9 = call noundef ptr @_ZNKSt10unique_ptrIN7CaDiCaL6SolverESt14default_deleteIS1_EEptEv(ptr noundef nonnull align 8 dereferenceable(8) %d_solver8) #3
  %call10 = call noundef zeroext i1 @_ZN7CaDiCaL6Solver3setEPKci(ptr noundef nonnull align 8 dereferenceable(40) %call9, ptr noundef @.str.2, i32 noundef 0)
  br label %if.end

if.end:                                           ; preds = %if.then, %entry
  %d_solver11 = getelementptr inbounds %"class.cvc5::internal::prop::CadicalSolver", ptr %this1, i32 0, i32 2
  %call12 = call noundef ptr @_ZNKSt10unique_ptrIN7CaDiCaL6SolverESt14default_deleteIS1_EEptEv(ptr noundef nonnull align 8 dereferenceable(8) %d_solver11) #3
  %call13 = call noundef zeroext i1 @_ZN7CaDiCaL6Solver3setEPKci(ptr noundef nonnull align 8 dereferenceable(40) %call12, ptr noundef @.str.3, i32 noundef 1)
  %d_solver14 = getelementptr inbounds %"class.cvc5::internal::prop::CadicalSolver", ptr %this1, i32 0, i32 2
  %call15 = call noundef ptr @_ZNKSt10unique_ptrIN7CaDiCaL6SolverESt14default_deleteIS1_EEptEv(ptr noundef nonnull align 8 dereferenceable(8) %d_solver14) #3
  %d_true16 = getelementptr inbounds %"class.cvc5::internal::prop::CadicalSolver", ptr %this1, i32 0, i32 10
  %2 = load i64, ptr %d_true16, align 8
  %call17 = call noundef i32 @_ZN4cvc58internal4prop12_GLOBAL__N_112toCadicalVarEm(i64 noundef %2)
  call void @_ZN7CaDiCaL6Solver3addEi(ptr noundef nonnull align 8 dereferenceable(40) %call15, i32 noundef %call17)
  %d_solver18 = getelementptr inbounds %"class.cvc5::internal::prop::CadicalSolver", ptr %this1, i32 0, i32 2
  %call19 = call noundef ptr @_ZNKSt10unique_ptrIN7CaDiCaL6SolverESt14default_deleteIS1_EEptEv(ptr noundef nonnull align 8 dereferenceable(8) %d_solver18) #3
  call void @_ZN7CaDiCaL6Solver3addEi(ptr noundef nonnull align 8 dereferenceable(40) %call19, i32 noundef 0)
  %d_solver20 = getelementptr inbounds %"class.cvc5::internal::prop::CadicalSolver", ptr %this1, i32 0, i32 2
  %call21 = call noundef ptr @_ZNKSt10unique_ptrIN7CaDiCaL6SolverESt14default_deleteIS1_EEptEv(ptr noundef nonnull align 8 dereferenceable(8) %d_solver20) #3
  %d_false22 = getelementptr inbounds %"class.cvc5::internal::prop::CadicalSolver", ptr %this1, i32 0, i32 11
  %3 = load i64, ptr %d_false22, align 8
  %call23 = call noundef i32 @_ZN4cvc58internal4prop12_GLOBAL__N_112toCadicalVarEm(i64 noundef %3)
  %sub = sub nsw i32 0, %call23
  call void @_ZN7CaDiCaL6Solver3addEi(ptr noundef nonnull align 8 dereferenceable(40) %call21, i32 noundef %sub)
  %d_solver24 = getelementptr inbounds %"class.cvc5::internal::prop::CadicalSolver", ptr %this1, i32 0, i32 2
  %call25 = call noundef ptr @_ZNKSt10unique_ptrIN7CaDiCaL6SolverESt14default_deleteIS1_EEptEv(ptr noundef nonnull align 8 dereferenceable(8) %d_solver24) #3
  call void @_ZN7CaDiCaL6Solver3addEi(ptr noundef nonnull align 8 dereferenceable(40) %call25, i32 noundef 0)
  ret void
}