; Function Attrs: mustprogress uwtable
define hidden void @_ZN4cvc58internal4prop13CadicalSolver4initEv(ptr noundef nonnull align 8 dereferenceable(144) %this) local_unnamed_addr #3 align 2 {
entry:
  %vtable = load ptr, ptr %this, align 8
  %vfn = getelementptr inbounds i8, ptr %vtable, i64 40
  %0 = load ptr, ptr %vfn, align 8
  %call = tail call noundef i64 %0(ptr noundef nonnull align 8 dereferenceable(144) %this, i1 noundef zeroext false, i1 noundef zeroext true)
  %d_true = getelementptr inbounds i8, ptr %this, i64 96
  store i64 %call, ptr %d_true, align 8
  %vtable2 = load ptr, ptr %this, align 8
  %vfn3 = getelementptr inbounds i8, ptr %vtable2, i64 40
  %1 = load ptr, ptr %vfn3, align 8
  %call4 = tail call noundef i64 %1(ptr noundef nonnull align 8 dereferenceable(144) %this, i1 noundef zeroext false, i1 noundef zeroext true)
  %d_false = getelementptr inbounds i8, ptr %this, i64 104
  store i64 %call4, ptr %d_false, align 8
  %d_propagator = getelementptr inbounds i8, ptr %this, i64 56
  %2 = load ptr, ptr %d_propagator, align 8
  %cmp.i.not = icmp eq ptr %2, null
  br i1 %cmp.i.not, label %if.end, label %if.then

if.then:                                          ; preds = %entry
  %d_solver = getelementptr inbounds i8, ptr %this, i64 24
  %3 = load ptr, ptr %d_solver, align 8
  %call7 = tail call noundef zeroext i1 @_ZN7CaDiCaL6Solver3setEPKci(ptr noundef nonnull align 8 dereferenceable(40) %3, ptr noundef nonnull @.str, i32 noundef 0)
  %4 = load ptr, ptr %d_solver, align 8
  %call10 = tail call noundef zeroext i1 @_ZN7CaDiCaL6Solver3setEPKci(ptr noundef nonnull align 8 dereferenceable(40) %4, ptr noundef nonnull @.str.2, i32 noundef 0)
  br label %if.end

if.end:                                           ; preds = %if.then, %entry
  %d_solver11 = getelementptr inbounds i8, ptr %this, i64 24
  %5 = load ptr, ptr %d_solver11, align 8
  %call13 = tail call noundef zeroext i1 @_ZN7CaDiCaL6Solver3setEPKci(ptr noundef nonnull align 8 dereferenceable(40) %5, ptr noundef nonnull @.str.3, i32 noundef 1)
  %6 = load ptr, ptr %d_solver11, align 8
  %7 = load i64, ptr %d_true, align 8
  %conv.i = trunc i64 %7 to i32
  tail call void @_ZN7CaDiCaL6Solver3addEi(ptr noundef nonnull align 8 dereferenceable(40) %6, i32 noundef %conv.i)
  %8 = load ptr, ptr %d_solver11, align 8
  tail call void @_ZN7CaDiCaL6Solver3addEi(ptr noundef nonnull align 8 dereferenceable(40) %8, i32 noundef 0)
  %9 = load ptr, ptr %d_solver11, align 8
  %10 = load i64, ptr %d_false, align 8
  %conv.i1 = trunc i64 %10 to i32
  %sub = sub nsw i32 0, %conv.i1
  tail call void @_ZN7CaDiCaL6Solver3addEi(ptr noundef nonnull align 8 dereferenceable(40) %9, i32 noundef %sub)
  %11 = load ptr, ptr %d_solver11, align 8
  tail call void @_ZN7CaDiCaL6Solver3addEi(ptr noundef nonnull align 8 dereferenceable(40) %11, i32 noundef 0)
  ret void
}